; ModuleID = '3/2173.c'
source_filename = "3/2173.c"
target datalayout = "e-m:e-p270:32:32-p271:32:32-p272:64:64-i64:64-f80:128-n8:16:32:64-S128"
target triple = "x86_64-pc-linux-gnu"

@.str = private unnamed_addr constant [3 x i8] c"%d\00", align 1
@.str.1 = private unnamed_addr constant [5 x i8] c"yes\0A\00", align 1
@.str.2 = private unnamed_addr constant [4 x i8] c"no\0A\00", align 1

; Function Attrs: noinline nounwind uwtable
define dso_local i32 @main() #0 {
  %1 = alloca i32, align 4
  %2 = alloca i32, align 4
  %3 = alloca i32, align 4
  %4 = alloca i32, align 4
  %5 = alloca i32, align 4
  %6 = alloca i32, align 4
  %7 = alloca i32, align 4
  %8 = alloca [100 x i32], align 16
  store i32 0, i32* %1, align 4
  store i32 1, i32* %6, align 4
  %9 = call i32 (i8*, ...) @__isoc99_scanf(i8* getelementptr inbounds ([3 x i8], [3 x i8]* @.str, i64 0, i64 0), i32* %3)
  %10 = call i32 (i8*, ...) @__isoc99_scanf(i8* getelementptr inbounds ([3 x i8], [3 x i8]* @.str, i64 0, i64 0), i32* %5)
  store i32 0, i32* %2, align 4
  br label %11

11:                                               ; preds = %20, %0
  %12 = load i32, i32* %2, align 4
  %13 = load i32, i32* %3, align 4
  %14 = icmp slt i32 %12, %13
  br i1 %14, label %15, label %23

15:                                               ; preds = %11
  %16 = load i32, i32* %2, align 4
  %17 = sext i32 %16 to i64
  %18 = getelementptr inbounds [100 x i32], [100 x i32]* %8, i64 0, i64 %17
  %19 = call i32 (i8*, ...) @__isoc99_scanf(i8* getelementptr inbounds ([3 x i8], [3 x i8]* @.str, i64 0, i64 0), i32* %18)
  br label %20

20:                                               ; preds = %15
  %21 = load i32, i32* %2, align 4
  %22 = add nsw i32 %21, 1
  store i32 %22, i32* %2, align 4
  br label %11

23:                                               ; preds = %11
  %24 = load i32, i32* %6, align 4
  store i32 %24, i32* %7, align 4
  %25 = icmp ne i32 %24, 0
  br i1 %25, label %26, label %65

26:                                               ; preds = %23
  store i32 0, i32* %4, align 4
  br label %27

27:                                               ; preds = %61, %26
  %28 = load i32, i32* %4, align 4
  %29 = load i32, i32* %3, align 4
  %30 = icmp slt i32 %28, %29
  br i1 %30, label %31, label %64

31:                                               ; preds = %27
  %32 = load i32, i32* %4, align 4
  %33 = add nsw i32 %32, 1
  store i32 %33, i32* %2, align 4
  br label %34

34:                                               ; preds = %57, %31
  %35 = load i32, i32* %2, align 4
  %36 = load i32, i32* %3, align 4
  %37 = icmp slt i32 %35, %36
  br i1 %37, label %38, label %60

38:                                               ; preds = %34
  %39 = load i32, i32* %6, align 4
  store i32 %39, i32* %7, align 4
  %40 = icmp ne i32 %39, 0
  br i1 %40, label %41, label %56

41:                                               ; preds = %38
  %42 = load i32, i32* %2, align 4
  %43 = sext i32 %42 to i64
  %44 = getelementptr inbounds [100 x i32], [100 x i32]* %8, i64 0, i64 %43
  %45 = load i32, i32* %44, align 4
  %46 = load i32, i32* %4, align 4
  %47 = sext i32 %46 to i64
  %48 = getelementptr inbounds [100 x i32], [100 x i32]* %8, i64 0, i64 %47
  %49 = load i32, i32* %48, align 4
  %50 = add nsw i32 %45, %49
  %51 = load i32, i32* %5, align 4
  %52 = icmp eq i32 %50, %51
  br i1 %52, label %53, label %55

53:                                               ; preds = %41
  %54 = call i32 (i8*, ...) @printf(i8* getelementptr inbounds ([5 x i8], [5 x i8]* @.str.1, i64 0, i64 0))
  store i32 0, i32* %6, align 4
  br label %55

55:                                               ; preds = %53, %41
  br label %56

56:                                               ; preds = %55, %38
  br label %57

57:                                               ; preds = %56
  %58 = load i32, i32* %2, align 4
  %59 = add nsw i32 %58, 1
  store i32 %59, i32* %2, align 4
  br label %34

60:                                               ; preds = %34
  br label %61

61:                                               ; preds = %60
  %62 = load i32, i32* %4, align 4
  %63 = add nsw i32 %62, 1
  store i32 %63, i32* %4, align 4
  br label %27

64:                                               ; preds = %27
  br label %65

65:                                               ; preds = %64, %23
  %66 = load i32, i32* %6, align 4
  %67 = icmp ne i32 %66, 0
  br i1 %67, label %68, label %103

68:                                               ; preds = %65
  store i32 0, i32* %4, align 4
  br label %69

69:                                               ; preds = %98, %68
  %70 = load i32, i32* %4, align 4
  %71 = load i32, i32* %3, align 4
  %72 = icmp slt i32 %70, %71
  br i1 %72, label %73, label %101

73:                                               ; preds = %69
  %74 = load i32, i32* %4, align 4
  %75 = add nsw i32 %74, 1
  store i32 %75, i32* %2, align 4
  br label %76

76:                                               ; preds = %94, %73
  %77 = load i32, i32* %2, align 4
  %78 = load i32, i32* %3, align 4
  %79 = icmp slt i32 %77, %78
  br i1 %79, label %80, label %97

80:                                               ; preds = %76
  %81 = load i32, i32* %2, align 4
  %82 = sext i32 %81 to i64
  %83 = getelementptr inbounds [100 x i32], [100 x i32]* %8, i64 0, i64 %82
  %84 = load i32, i32* %83, align 4
  %85 = load i32, i32* %4, align 4
  %86 = sext i32 %85 to i64
  %87 = getelementptr inbounds [100 x i32], [100 x i32]* %8, i64 0, i64 %86
  %88 = load i32, i32* %87, align 4
  %89 = add nsw i32 %84, %88
  %90 = load i32, i32* %5, align 4
  %91 = icmp eq i32 %89, %90
  br i1 %91, label %92, label %93

92:                                               ; preds = %80
  store i32 0, i32* %6, align 4
  br label %93

93:                                               ; preds = %92, %80
  br label %94

94:                                               ; preds = %93
  %95 = load i32, i32* %2, align 4
  %96 = add nsw i32 %95, 1
  store i32 %96, i32* %2, align 4
  br label %76

97:                                               ; preds = %76
  br label %98

98:                                               ; preds = %97
  %99 = load i32, i32* %4, align 4
  %100 = add nsw i32 %99, 1
  store i32 %100, i32* %4, align 4
  br label %69

101:                                              ; preds = %69
  %102 = call i32 (i8*, ...) @printf(i8* getelementptr inbounds ([4 x i8], [4 x i8]* @.str.2, i64 0, i64 0))
  br label %103

103:                                              ; preds = %101, %65
  ret i32 0
}

declare dso_local i32 @__isoc99_scanf(i8*, ...) #1

declare dso_local i32 @printf(i8*, ...) #1


!llvm.module.flags = !{!0}
!llvm.ident = !{!1}

!0 = !{i32 1, !"wchar_size", i32 4}
!1 = !{!"clang version 10.0.0-4ubuntu1 "}
